; Function Attrs: mustprogress nounwind uwtable
define void @_ZN3gmx19GaussianOn1DLatticeD2Ev(ptr noundef nonnull align 8 captures(none) dereferenceable(8) %0) unnamed_addr #9 align 2 personality ptr @__gxx_personality_v0 {
  %2 = load ptr, ptr %0, align 8, !tbaa !28
  %.not.i = icmp eq ptr %2, null
  br i1 %.not.i, label %_ZNSt10unique_ptrIN3gmx19GaussianOn1DLattice4ImplESt14default_deleteIS2_EED2Ev.exit, label %3

3:                                                ; preds = %1
  %4 = getelementptr inbounds nuw i8, ptr %2, i64 40
  %5 = load ptr, ptr %4, align 8, !tbaa !17
  %.not.i.i.i.i.i.i = icmp eq ptr %5, null
  br i1 %.not.i.i.i.i.i.i, label %_ZNSt6vectorIfSaIfEED2Ev.exit.i.i.i, label %6

6:                                                ; preds = %3
  %7 = getelementptr inbounds nuw i8, ptr %2, i64 56
  %8 = load ptr, ptr %7, align 8, !tbaa !18
  %9 = ptrtoint ptr %8 to i64
  %10 = ptrtoint ptr %5 to i64
  %11 = sub i64 %9, %10
  tail call void @_ZdlPvm(ptr noundef nonnull %5, i64 noundef %11) #23
  br label %_ZNSt6vectorIfSaIfEED2Ev.exit.i.i.i

_ZNSt6vectorIfSaIfEED2Ev.exit.i.i.i:              ; preds = %6, %3
  %12 = getelementptr inbounds nuw i8, ptr %2, i64 16
  %13 = load ptr, ptr %12, align 8, !tbaa !17
  %.not.i.i.i1.i.i.i = icmp eq ptr %13, null
  br i1 %.not.i.i.i1.i.i.i, label %_ZNKSt14default_deleteIN3gmx19GaussianOn1DLattice4ImplEEclEPS2_.exit.i, label %14

14:                                               ; preds = %_ZNSt6vectorIfSaIfEED2Ev.exit.i.i.i
  %15 = getelementptr inbounds nuw i8, ptr %2, i64 32
  %16 = load ptr, ptr %15, align 8, !tbaa !18
  %17 = ptrtoint ptr %16 to i64
  %18 = ptrtoint ptr %13 to i64
  %19 = sub i64 %17, %18
  tail call void @_ZdlPvm(ptr noundef nonnull %13, i64 noundef %19) #23
  br label %_ZNKSt14default_deleteIN3gmx19GaussianOn1DLattice4ImplEEclEPS2_.exit.i

_ZNKSt14default_deleteIN3gmx19GaussianOn1DLattice4ImplEEclEPS2_.exit.i: ; preds = %14, %_ZNSt6vectorIfSaIfEED2Ev.exit.i.i.i
  tail call void @_ZdlPvm(ptr noundef nonnull %2, i64 noundef 64) #23
  br label %_ZNSt10unique_ptrIN3gmx19GaussianOn1DLattice4ImplESt14default_deleteIS2_EED2Ev.exit

_ZNSt10unique_ptrIN3gmx19GaussianOn1DLattice4ImplESt14default_deleteIS2_EED2Ev.exit: ; preds = %1, %_ZNKSt14default_deleteIN3gmx19GaussianOn1DLattice4ImplEEclEPS2_.exit.i
  store ptr null, ptr %0, align 8, !tbaa !28
  ret void
}